target datalayout = "e-m:e-p270:32:32-p271:32:32-p272:64:64-i64:64-i128:128-f80:128-n8:16:32:64-S128"
target triple = "x86_64-pc-linux-gnu"

%struct.tMPI_Atomic = type { i32, [60 x i8] }
%struct.tmpi_thread = type { ptr, %struct.recv_envelope_list, ptr, %struct.free_envelope_list, %struct.tMPI_Atomic, %struct.tMPI_Event_t, %struct.req_list, ptr, ptr, ptr, ptr, i32, ptr }
%struct.recv_envelope_list = type { ptr, %struct.envelope }
%struct.envelope = type { i32, ptr, ptr, ptr, ptr, i64, ptr, i32, %struct.tMPI_Atomic, i32, ptr, ptr, i32, ptr, ptr, ptr, ptr }
%struct.free_envelope_list = type { ptr, ptr }
%struct.tMPI_Event_t = type { %struct.tMPI_Atomic, i32 }
%struct.req_list = type { ptr, ptr }
%struct.send_envelope_list = type { ptr, %struct.tMPI_Atomic_ptr, %struct.tMPI_Atomic_ptr, ptr, ptr, i64 }
%struct.tMPI_Atomic_ptr = type { ptr, [56 x i8] }

@Nthreads = global i32 0, align 4

; Function Attrs: mustprogress uwtable
define internal void @_ZL19tMPI_Thread_destroyP11tmpi_thread(ptr noundef %0) #0 {
  %2 = alloca ptr, align 8
  %3 = alloca i32, align 4
  store ptr %0, ptr %2, align 8, !tbaa !34
  call void @llvm.lifetime.start.p0(i64 4, ptr %3) #11
  %4 = load ptr, ptr %2, align 8, !tbaa !34
  %5 = getelementptr inbounds nuw %struct.tmpi_thread, ptr %4, i32 0, i32 1
  call void @_Z26tMPI_Recv_env_list_destroyP18recv_envelope_list(ptr noundef %5)
  store i32 0, ptr %3, align 4, !tbaa !30
  br label %6

6:                                                ; preds = %17, %1
  %7 = load i32, ptr %3, align 4, !tbaa !30
  %8 = load i32, ptr @Nthreads, align 4, !tbaa !30
  %9 = icmp slt i32 %7, %8
  br i1 %9, label %10, label %20

10:                                               ; preds = %6
  %11 = load ptr, ptr %2, align 8, !tbaa !34
  %12 = getelementptr inbounds nuw %struct.tmpi_thread, ptr %11, i32 0, i32 2
  %13 = load ptr, ptr %12, align 8, !tbaa !80
  %14 = load i32, ptr %3, align 4, !tbaa !30
  %15 = sext i32 %14 to i64
  %16 = getelementptr inbounds %struct.send_envelope_list, ptr %13, i64 %15
  call void @_Z26tMPI_Send_env_list_destroyP18send_envelope_list(ptr noundef %16)
  br label %17

17:                                               ; preds = %10
  %18 = load i32, ptr %3, align 4, !tbaa !30
  %19 = add nsw i32 %18, 1
  store i32 %19, ptr %3, align 4, !tbaa !30
  br label %6, !llvm.loop !81

20:                                               ; preds = %6
  %21 = load ptr, ptr %2, align 8, !tbaa !34
  %22 = getelementptr inbounds nuw %struct.tmpi_thread, ptr %21, i32 0, i32 2
  %23 = load ptr, ptr %22, align 8, !tbaa !80
  call void @free(ptr noundef %23) #11
  %24 = load ptr, ptr %2, align 8, !tbaa !34
  %25 = getelementptr inbounds nuw %struct.tmpi_thread, ptr %24, i32 0, i32 3
  call void @_Z26tMPI_Free_env_list_destroyP18free_envelope_list(ptr noundef %25)
  %26 = load ptr, ptr %2, align 8, !tbaa !34
  %27 = getelementptr inbounds nuw %struct.tmpi_thread, ptr %26, i32 0, i32 5
  call void @_Z18tMPI_Event_destroyP12tMPI_Event_t(ptr noundef %27)
  %28 = load ptr, ptr %2, align 8, !tbaa !34
  %29 = getelementptr inbounds nuw %struct.tmpi_thread, ptr %28, i32 0, i32 6
  call void @_Z21tMPI_Req_list_destroyP8req_list(ptr noundef %29)
  store i32 0, ptr %3, align 4, !tbaa !30
  br label %30

30:                                               ; preds = %44, %20
  %31 = load i32, ptr %3, align 4, !tbaa !30
  %32 = load ptr, ptr %2, align 8, !tbaa !34
  %33 = getelementptr inbounds nuw %struct.tmpi_thread, ptr %32, i32 0, i32 11
  %34 = load i32, ptr %33, align 8, !tbaa !68
  %35 = icmp slt i32 %31, %34
  br i1 %35, label %36, label %47

36:                                               ; preds = %30
  %37 = load ptr, ptr %2, align 8, !tbaa !34
  %38 = getelementptr inbounds nuw %struct.tmpi_thread, ptr %37, i32 0, i32 12
  %39 = load ptr, ptr %38, align 8, !tbaa !69
  %40 = load i32, ptr %3, align 4, !tbaa !30
  %41 = sext i32 %40 to i64
  %42 = getelementptr inbounds ptr, ptr %39, i64 %41
  %43 = load ptr, ptr %42, align 8, !tbaa !55
  call void @free(ptr noundef %43) #11
  br label %44

44:                                               ; preds = %36
  %45 = load i32, ptr %3, align 4, !tbaa !30
  %46 = add nsw i32 %45, 1
  store i32 %46, ptr %3, align 4, !tbaa !30
  br label %30, !llvm.loop !82

47:                                               ; preds = %30
  call void @llvm.lifetime.end.p0(i64 4, ptr %3) #11
  ret void
}