; Function Attrs: mustprogress uwtable
define internal fastcc void @_ZL19tMPI_Thread_destroyP11tmpi_thread(ptr noundef %0) unnamed_addr #0 {
  %2 = getelementptr inbounds nuw i8, ptr %0, i64 8
  tail call void @_Z26tMPI_Recv_env_list_destroyP18recv_envelope_list(ptr noundef nonnull %2)
  %3 = load i32, ptr @Nthreads, align 4, !tbaa !46
  %4 = icmp sgt i32 %3, 0
  br i1 %4, label %.lr.ph, label %._crit_edge

.lr.ph:                                           ; preds = %1
  %5 = getelementptr inbounds nuw i8, ptr %0, i64 200
  br label %6

6:                                                ; preds = %.lr.ph, %6
  %indvars.iv = phi i64 [ 0, %.lr.ph ], [ %indvars.iv.next, %6 ]
  %7 = load ptr, ptr %5, align 8, !tbaa !84
  %8 = getelementptr inbounds nuw %struct.send_envelope_list, ptr %7, i64 %indvars.iv
  tail call void @_Z26tMPI_Send_env_list_destroyP18send_envelope_list(ptr noundef %8)
  %indvars.iv.next = add nuw nsw i64 %indvars.iv, 1
  %9 = load i32, ptr @Nthreads, align 4, !tbaa !46
  %10 = sext i32 %9 to i64
  %11 = icmp slt i64 %indvars.iv.next, %10
  br i1 %11, label %6, label %._crit_edge, !llvm.loop !85

._crit_edge:                                      ; preds = %6, %1
  %12 = getelementptr inbounds nuw i8, ptr %0, i64 200
  %13 = load ptr, ptr %12, align 8, !tbaa !84
  tail call void @free(ptr noundef %13) #18
  %14 = getelementptr inbounds nuw i8, ptr %0, i64 208
  tail call void @_Z26tMPI_Free_env_list_destroyP18free_envelope_list(ptr noundef nonnull %14)
  %15 = getelementptr inbounds nuw i8, ptr %0, i64 288
  tail call void @_Z18tMPI_Event_destroyP12tMPI_Event_t(ptr noundef nonnull %15)
  %16 = getelementptr inbounds nuw i8, ptr %0, i64 360
  tail call void @_Z21tMPI_Req_list_destroyP8req_list(ptr noundef nonnull %16)
  %17 = getelementptr inbounds nuw i8, ptr %0, i64 408
  %18 = load i32, ptr %17, align 8, !tbaa !60
  %19 = icmp sgt i32 %18, 0
  br i1 %19, label %.lr.ph16, label %._crit_edge17

.lr.ph16:                                         ; preds = %._crit_edge
  %20 = getelementptr inbounds nuw i8, ptr %0, i64 416
  br label %21

21:                                               ; preds = %.lr.ph16, %21
  %indvars.iv19 = phi i64 [ 0, %.lr.ph16 ], [ %indvars.iv.next20, %21 ]
  %22 = load ptr, ptr %20, align 8, !tbaa !61
  %23 = getelementptr inbounds nuw ptr, ptr %22, i64 %indvars.iv19
  %24 = load ptr, ptr %23, align 8, !tbaa !48
  tail call void @free(ptr noundef %24) #18
  %indvars.iv.next20 = add nuw nsw i64 %indvars.iv19, 1
  %25 = load i32, ptr %17, align 8, !tbaa !60
  %26 = sext i32 %25 to i64
  %27 = icmp slt i64 %indvars.iv.next20, %26
  br i1 %27, label %21, label %._crit_edge17, !llvm.loop !86

._crit_edge17:                                    ; preds = %21, %._crit_edge
  ret void
}